target datalayout = "e-m:e-p270:32:32-p271:32:32-p272:64:64-i64:64-i128:128-f80:128-n8:16:32:64-S128"
target triple = "x86_64-pc-linux-gnu"

%struct.numeric = type { i32, i32, i32, i32, i32, ptr, ptr }
%struct.decimal = type { i32, i32, i32, i32, i32, [30 x i8] }

; Function Attrs: nounwind uwtable
define i32 @PGTYPESnumeric_to_decimal(ptr noundef %0, ptr noundef %1) #0 {
  %3 = alloca i32, align 4
  %4 = alloca ptr, align 8
  %5 = alloca ptr, align 8
  %6 = alloca i32, align 4
  %7 = alloca i32, align 4
  store ptr %0, ptr %4, align 8
  store ptr %1, ptr %5, align 8
  call void @llvm.lifetime.start.p0(i64 4, ptr %6) #8
  %8 = load ptr, ptr %4, align 8
  %9 = getelementptr inbounds nuw %struct.numeric, ptr %8, i32 0, i32 0
  %10 = load i32, ptr %9, align 8
  %11 = icmp sgt i32 %10, 30
  br i1 %11, label %12, label %14

12:                                               ; preds = %2
  %13 = call ptr @__errno_location() #9
  store i32 301, ptr %13, align 4
  store i32 -1, ptr %3, align 4
  store i32 1, ptr %7, align 4
  br label %63

14:                                               ; preds = %2
  %15 = load ptr, ptr %4, align 8
  %16 = getelementptr inbounds nuw %struct.numeric, ptr %15, i32 0, i32 1
  %17 = load i32, ptr %16, align 4
  %18 = load ptr, ptr %5, align 8
  %19 = getelementptr inbounds nuw %struct.decimal, ptr %18, i32 0, i32 1
  store i32 %17, ptr %19, align 4
  %20 = load ptr, ptr %4, align 8
  %21 = getelementptr inbounds nuw %struct.numeric, ptr %20, i32 0, i32 2
  %22 = load i32, ptr %21, align 8
  %23 = load ptr, ptr %5, align 8
  %24 = getelementptr inbounds nuw %struct.decimal, ptr %23, i32 0, i32 2
  store i32 %22, ptr %24, align 4
  %25 = load ptr, ptr %4, align 8
  %26 = getelementptr inbounds nuw %struct.numeric, ptr %25, i32 0, i32 3
  %27 = load i32, ptr %26, align 4
  %28 = load ptr, ptr %5, align 8
  %29 = getelementptr inbounds nuw %struct.decimal, ptr %28, i32 0, i32 3
  store i32 %27, ptr %29, align 4
  %30 = load ptr, ptr %4, align 8
  %31 = getelementptr inbounds nuw %struct.numeric, ptr %30, i32 0, i32 4
  %32 = load i32, ptr %31, align 8
  %33 = load ptr, ptr %5, align 8
  %34 = getelementptr inbounds nuw %struct.decimal, ptr %33, i32 0, i32 4
  store i32 %32, ptr %34, align 4
  %35 = load ptr, ptr %4, align 8
  %36 = getelementptr inbounds nuw %struct.numeric, ptr %35, i32 0, i32 0
  %37 = load i32, ptr %36, align 8
  %38 = load ptr, ptr %5, align 8
  %39 = getelementptr inbounds nuw %struct.decimal, ptr %38, i32 0, i32 0
  store i32 %37, ptr %39, align 4
  store i32 0, ptr %6, align 4
  br label %40

40:                                               ; preds = %59, %14
  %41 = load i32, ptr %6, align 4
  %42 = load ptr, ptr %4, align 8
  %43 = getelementptr inbounds nuw %struct.numeric, ptr %42, i32 0, i32 0
  %44 = load i32, ptr %43, align 8
  %45 = icmp slt i32 %41, %44
  br i1 %45, label %46, label %62

46:                                               ; preds = %40
  %47 = load ptr, ptr %4, align 8
  %48 = getelementptr inbounds nuw %struct.numeric, ptr %47, i32 0, i32 6
  %49 = load ptr, ptr %48, align 8
  %50 = load i32, ptr %6, align 4
  %51 = sext i32 %50 to i64
  %52 = getelementptr inbounds i8, ptr %49, i64 %51
  %53 = load i8, ptr %52, align 1
  %54 = load ptr, ptr %5, align 8
  %55 = getelementptr inbounds nuw %struct.decimal, ptr %54, i32 0, i32 5
  %56 = load i32, ptr %6, align 4
  %57 = sext i32 %56 to i64
  %58 = getelementptr inbounds [30 x i8], ptr %55, i64 0, i64 %57
  store i8 %53, ptr %58, align 1
  br label %59

59:                                               ; preds = %46
  %60 = load i32, ptr %6, align 4
  %61 = add i32 %60, 1
  store i32 %61, ptr %6, align 4
  br label %40, !llvm.loop !43

62:                                               ; preds = %40
  store i32 0, ptr %3, align 4
  store i32 1, ptr %7, align 4
  br label %63

63:                                               ; preds = %62, %12
  call void @llvm.lifetime.end.p0(i64 4, ptr %6) #8
  %64 = load i32, ptr %3, align 4
  ret i32 %64
}