; Function Attrs: nofree nosync nounwind memory(readwrite, inaccessiblemem: none) uwtable
define range(i32 -1, 1) i32 @PGTYPESnumeric_to_decimal(ptr noundef readonly captures(none) %0, ptr noundef writeonly captures(none) %1) local_unnamed_addr #10 {
  %3 = load i32, ptr %0, align 8
  %4 = icmp sgt i32 %3, 30
  br i1 %4, label %5, label %7

5:                                                ; preds = %2
  %6 = tail call ptr @__errno_location() #15
  store i32 301, ptr %6, align 4
  br label %.loopexit

7:                                                ; preds = %2
  %8 = getelementptr inbounds nuw i8, ptr %0, i64 4
  %9 = load i32, ptr %8, align 4
  %10 = getelementptr inbounds nuw i8, ptr %1, i64 4
  store i32 %9, ptr %10, align 4
  %11 = getelementptr inbounds nuw i8, ptr %0, i64 8
  %12 = load i32, ptr %11, align 8
  %13 = getelementptr inbounds nuw i8, ptr %1, i64 8
  store i32 %12, ptr %13, align 4
  %14 = getelementptr inbounds nuw i8, ptr %0, i64 12
  %15 = load i32, ptr %14, align 4
  %16 = getelementptr inbounds nuw i8, ptr %1, i64 12
  store i32 %15, ptr %16, align 4
  %17 = getelementptr inbounds nuw i8, ptr %0, i64 16
  %18 = load i32, ptr %17, align 8
  %19 = getelementptr inbounds nuw i8, ptr %1, i64 16
  store i32 %18, ptr %19, align 4
  %20 = load i32, ptr %0, align 8
  store i32 %20, ptr %1, align 4
  %21 = icmp sgt i32 %20, 0
  br i1 %21, label %.lr.ph, label %.loopexit

.lr.ph:                                           ; preds = %7
  %22 = getelementptr inbounds nuw i8, ptr %0, i64 32
  %23 = getelementptr inbounds nuw i8, ptr %1, i64 20
  br label %24

24:                                               ; preds = %.lr.ph, %24
  %indvars.iv = phi i64 [ 0, %.lr.ph ], [ %indvars.iv.next, %24 ]
  %25 = load ptr, ptr %22, align 8
  %26 = getelementptr inbounds nuw i8, ptr %25, i64 %indvars.iv
  %27 = load i8, ptr %26, align 1
  %28 = getelementptr inbounds nuw [30 x i8], ptr %23, i64 0, i64 %indvars.iv
  store i8 %27, ptr %28, align 1
  %indvars.iv.next = add nuw nsw i64 %indvars.iv, 1
  %29 = load i32, ptr %0, align 8
  %30 = sext i32 %29 to i64
  %31 = icmp slt i64 %indvars.iv.next, %30
  br i1 %31, label %24, label %.loopexit, !llvm.loop !40

.loopexit:                                        ; preds = %24, %7, %5
  %.018 = phi i32 [ -1, %5 ], [ 0, %7 ], [ 0, %24 ]
  ret i32 %.018
}